target datalayout = "e-m:e-p270:32:32-p271:32:32-p272:64:64-i64:64-i128:128-f80:128-n8:16:32:64-S128"
target triple = "x86_64-unknown-linux-gnu"

%struct.OptsVisitor = type { %struct.Visitor, ptr, i32, ptr, i32, ptr, %union.anon, %union.anon, ptr }
%struct.Visitor = type { ptr, ptr, ptr, ptr, ptr, ptr, ptr, ptr, ptr, ptr, ptr, ptr, ptr, ptr, ptr, ptr, ptr, ptr, ptr, ptr, i32, %struct.CompatPolicy, ptr, ptr }
%struct.CompatPolicy = type { i8, i32, i8, i32, i8, i32, i8, i32 }
%union.anon = type { i64 }
%struct.QTailQLink = type { ptr, ptr }
%struct.QemuOpt = type { ptr, ptr, ptr, %union.anon.2, ptr, %union.anon.3 }
%union.anon.2 = type { i64 }
%union.anon.3 = type { %struct.QTailQLink }

@.str.1 = private unnamed_addr constant [28 x i8] c"../qemu/qapi/opts-visitor.c\00", align 1
@.str.9 = private unnamed_addr constant [1 x i8] zeroinitializer, align 1
@.str.11 = private unnamed_addr constant [26 x i8] c"Parameter '%s' expects %s\00", align 1
@.str.15 = private unnamed_addr constant [32 x i8] c"ov->list_mode == LM_IN_PROGRESS\00", align 1
@__PRETTY_FUNCTION__.processed = private unnamed_addr constant [44 x i8] c"void processed(OptsVisitor *, const char *)\00", align 1
@__func__.opts_type_size = private unnamed_addr constant [15 x i8] c"opts_type_size\00", align 1
@.str.18 = private unnamed_addr constant [13 x i8] c"a size value\00", align 1

; Function Attrs: nounwind sspstrong uwtable
define internal void @processed(ptr noundef %ov, ptr noundef %name) #0 {
entry:
  %ov.addr = alloca ptr, align 8
  %name.addr = alloca ptr, align 8
  store ptr %ov, ptr %ov.addr, align 8
  store ptr %name, ptr %name.addr, align 8
  %0 = load ptr, ptr %ov.addr, align 8
  %list_mode = getelementptr inbounds %struct.OptsVisitor, ptr %0, i32 0, i32 4
  %1 = load i32, ptr %list_mode, align 8
  %cmp = icmp eq i32 %1, 0
  br i1 %cmp, label %if.then, label %if.end

if.then:                                          ; preds = %entry
  %2 = load ptr, ptr %ov.addr, align 8
  %unprocessed_opts = getelementptr inbounds %struct.OptsVisitor, ptr %2, i32 0, i32 3
  %3 = load ptr, ptr %unprocessed_opts, align 8
  %4 = load ptr, ptr %name.addr, align 8
  %call = call i32 @g_hash_table_remove(ptr noundef %3, ptr noundef %4)
  br label %if.end4

if.end:                                           ; preds = %entry
  %5 = load ptr, ptr %ov.addr, align 8
  %list_mode1 = getelementptr inbounds %struct.OptsVisitor, ptr %5, i32 0, i32 4
  %6 = load i32, ptr %list_mode1, align 8
  %cmp2 = icmp eq i32 %6, 1
  br i1 %cmp2, label %if.then3, label %if.else

if.then3:                                         ; preds = %if.end
  br label %if.end4

if.else:                                          ; preds = %if.end
  call void @__assert_fail(ptr noundef @.str.15, ptr noundef @.str.1, i32 noundef 344, ptr noundef @__PRETTY_FUNCTION__.processed) #7
  unreachable

if.end4:                                          ; preds = %if.then3, %if.then
  ret void
}

; Function Attrs: nounwind sspstrong uwtable
define internal ptr @to_ov(ptr noundef %v) #0 {
entry:
  %v.addr = alloca ptr, align 8
  %__mptr = alloca ptr, align 8
  %tmp = alloca ptr, align 8
  store ptr %v, ptr %v.addr, align 8
  %0 = load ptr, ptr %v.addr, align 8
  store ptr %0, ptr %__mptr, align 8
  %1 = load ptr, ptr %__mptr, align 8
  %add.ptr = getelementptr i8, ptr %1, i64 0
  store ptr %add.ptr, ptr %tmp, align 8
  %2 = load ptr, ptr %tmp, align 8
  ret ptr %2
}

; Function Attrs: nounwind sspstrong uwtable
define internal zeroext i1 @opts_type_size(ptr noundef %v, ptr noundef %name, ptr noundef %obj, ptr noundef %errp) #0 {
entry:
  %retval = alloca i1, align 1
  %v.addr = alloca ptr, align 8
  %name.addr = alloca ptr, align 8
  %obj.addr = alloca ptr, align 8
  %errp.addr = alloca ptr, align 8
  %ov = alloca ptr, align 8
  %opt = alloca ptr, align 8
  %err = alloca i32, align 4
  store ptr %v, ptr %v.addr, align 8
  store ptr %name, ptr %name.addr, align 8
  store ptr %obj, ptr %obj.addr, align 8
  store ptr %errp, ptr %errp.addr, align 8
  %0 = load ptr, ptr %v.addr, align 8
  %call = call ptr @to_ov(ptr noundef %0)
  store ptr %call, ptr %ov, align 8
  %1 = load ptr, ptr %ov, align 8
  %2 = load ptr, ptr %name.addr, align 8
  %3 = load ptr, ptr %errp.addr, align 8
  %call1 = call ptr @lookup_scalar(ptr noundef %1, ptr noundef %2, ptr noundef %3)
  store ptr %call1, ptr %opt, align 8
  %4 = load ptr, ptr %opt, align 8
  %tobool = icmp ne ptr %4, null
  br i1 %tobool, label %if.end, label %if.then

if.then:                                          ; preds = %entry
  store i1 false, ptr %retval, align 1
  br label %return

if.end:                                           ; preds = %entry
  %5 = load ptr, ptr %opt, align 8
  %str = getelementptr inbounds %struct.QemuOpt, ptr %5, i32 0, i32 1
  %6 = load ptr, ptr %str, align 8
  %tobool2 = icmp ne ptr %6, null
  br i1 %tobool2, label %cond.true, label %cond.false

cond.true:                                        ; preds = %if.end
  %7 = load ptr, ptr %opt, align 8
  %str3 = getelementptr inbounds %struct.QemuOpt, ptr %7, i32 0, i32 1
  %8 = load ptr, ptr %str3, align 8
  br label %cond.end

cond.false:                                       ; preds = %if.end
  br label %cond.end

cond.end:                                         ; preds = %cond.false, %cond.true
  %cond = phi ptr [ %8, %cond.true ], [ @.str.9, %cond.false ]
  %9 = load ptr, ptr %obj.addr, align 8
  %call4 = call i32 @qemu_strtosz(ptr noundef %cond, ptr noundef null, ptr noundef %9)
  store i32 %call4, ptr %err, align 4
  %10 = load i32, ptr %err, align 4
  %cmp = icmp slt i32 %10, 0
  br i1 %cmp, label %if.then5, label %if.end7

if.then5:                                         ; preds = %cond.end
  %11 = load ptr, ptr %errp.addr, align 8
  %12 = load ptr, ptr %opt, align 8
  %name6 = getelementptr inbounds %struct.QemuOpt, ptr %12, i32 0, i32 0
  %13 = load ptr, ptr %name6, align 8
  call void (ptr, ptr, i32, ptr, ptr, ...) @error_setg_internal(ptr noundef %11, ptr noundef @.str.1, i32 noundef 519, ptr noundef @__func__.opts_type_size, ptr noundef @.str.11, ptr noundef %13, ptr noundef @.str.18)
  store i1 false, ptr %retval, align 1
  br label %return

if.end7:                                          ; preds = %cond.end
  %14 = load ptr, ptr %ov, align 8
  %15 = load ptr, ptr %name.addr, align 8
  call void @processed(ptr noundef %14, ptr noundef %15)
  store i1 true, ptr %retval, align 1
  br label %return

return:                                           ; preds = %if.end7, %if.then5, %if.then
  %16 = load i1, ptr %retval, align 1
  ret i1 %16
}