; Function Attrs: nounwind sspstrong uwtable
define internal noundef zeroext i1 @opts_type_size(ptr noundef readonly captures(none) %v, ptr noundef %name, ptr noundef %obj, ptr noundef %errp) #0 {
entry:
  %call1 = tail call fastcc ptr @lookup_scalar(ptr noundef %v, ptr noundef %name, ptr noundef %errp)
  %tobool.not = icmp eq ptr %call1, null
  br i1 %tobool.not, label %return, label %if.end

if.end:                                           ; preds = %entry
  %str = getelementptr inbounds nuw i8, ptr %call1, i64 8
  %0 = load ptr, ptr %str, align 8
  %tobool2.not = icmp eq ptr %0, null
  %spec.select = select i1 %tobool2.not, ptr @.str.9, ptr %0
  %call4 = tail call i32 @qemu_strtosz(ptr noundef nonnull %spec.select, ptr noundef null, ptr noundef %obj) #10
  %cmp = icmp slt i32 %call4, 0
  br i1 %cmp, label %if.then5, label %if.end7

if.then5:                                         ; preds = %if.end
  %1 = load ptr, ptr %call1, align 8
  tail call void (ptr, ptr, i32, ptr, ptr, ...) @error_setg_internal(ptr noundef %errp, ptr noundef nonnull @.str.1, i32 noundef 519, ptr noundef nonnull @__func__.opts_type_size, ptr noundef nonnull @.str.11, ptr noundef %1, ptr noundef nonnull @.str.18) #10
  br label %return

if.end7:                                          ; preds = %if.end
  %list_mode.i = getelementptr inbounds nuw i8, ptr %v, i64 240
  %2 = load i32, ptr %list_mode.i, align 8
  switch i32 %2, label %if.else.i [
    i32 0, label %if.then.i
    i32 1, label %return
  ]

if.then.i:                                        ; preds = %if.end7
  %unprocessed_opts.i = getelementptr inbounds nuw i8, ptr %v, i64 232
  %3 = load ptr, ptr %unprocessed_opts.i, align 8
  %call.i = tail call i32 @g_hash_table_remove(ptr noundef %3, ptr noundef %name) #10
  br label %return

if.else.i:                                        ; preds = %if.end7
  tail call void @__assert_fail(ptr noundef nonnull @.str.15, ptr noundef nonnull @.str.1, i32 noundef 344, ptr noundef nonnull @__PRETTY_FUNCTION__.processed) #8
  unreachable

return:                                           ; preds = %if.then.i, %if.end7, %entry, %if.then5
  %retval.0 = phi i1 [ false, %if.then5 ], [ false, %entry ], [ true, %if.end7 ], [ true, %if.then.i ]
  ret i1 %retval.0
}